target datalayout = "e-m:e-p270:32:32-p271:32:32-p272:64:64-i64:64-i128:128-f80:128-n8:16:32:64-S128"
target triple = "x86_64-pc-linux-gnu"

%struct._PySeqLock = type { i32 }

; Function Attrs: nounwind uwtable
define internal void @_Py_yield() #0 {
  %1 = call i32 @sched_yield() #7
  ret void
}

; Function Attrs: inlinehint nounwind uwtable
define internal i32 @_Py_atomic_load_uint32_acquire(ptr noundef %0) #2 {
  %2 = alloca ptr, align 8
  %3 = alloca i32, align 4
  store ptr %0, ptr %2, align 8, !tbaa !42
  %4 = load ptr, ptr %2, align 8, !tbaa !42
  %5 = load atomic i32, ptr %4 acquire, align 4
  store i32 %5, ptr %3, align 4
  %6 = load i32, ptr %3, align 4, !tbaa !11
  ret i32 %6
}

; Function Attrs: nounwind uwtable
define dso_local i32 @_PySeqLock_BeginRead(ptr noundef %0) #0 {
  %2 = alloca ptr, align 8
  %3 = alloca i32, align 4
  store ptr %0, ptr %2, align 8, !tbaa !25
  call void @llvm.lifetime.start.p0(i64 4, ptr %3) #7
  %4 = load ptr, ptr %2, align 8, !tbaa !25
  %5 = getelementptr inbounds nuw %struct._PySeqLock, ptr %4, i32 0, i32 0
  %6 = call i32 @_Py_atomic_load_uint32_acquire(ptr noundef %5)
  store i32 %6, ptr %3, align 4, !tbaa !11
  br label %7

7:                                                ; preds = %11, %1
  %8 = load i32, ptr %3, align 4, !tbaa !11
  %9 = and i32 %8, 1
  %10 = icmp ne i32 %9, 0
  br i1 %10, label %11, label %15

11:                                               ; preds = %7
  call void @_Py_yield()
  %12 = load ptr, ptr %2, align 8, !tbaa !25
  %13 = getelementptr inbounds nuw %struct._PySeqLock, ptr %12, i32 0, i32 0
  %14 = call i32 @_Py_atomic_load_uint32_acquire(ptr noundef %13)
  store i32 %14, ptr %3, align 4, !tbaa !11
  br label %7, !llvm.loop !44

15:                                               ; preds = %7
  %16 = load i32, ptr %3, align 4, !tbaa !11
  call void @llvm.lifetime.end.p0(i64 4, ptr %3) #7
  ret i32 %16
}