; Function Attrs: nounwind uwtable
define dso_local range(i32 0, -1) i32 @_PySeqLock_BeginRead(ptr noundef readonly captures(none) %0) local_unnamed_addr #0 {
  %2 = load atomic i32, ptr %0 acquire, align 4
  %3 = and i32 %2, 1
  %.not3 = icmp eq i32 %3, 0
  br i1 %.not3, label %._crit_edge, label %.lr.ph

.lr.ph:                                           ; preds = %1, %.lr.ph
  %4 = tail call i32 @sched_yield() #8
  %5 = load atomic i32, ptr %0 acquire, align 4
  %6 = and i32 %5, 1
  %.not = icmp eq i32 %6, 0
  br i1 %.not, label %._crit_edge, label %.lr.ph, !llvm.loop !24

._crit_edge:                                      ; preds = %.lr.ph, %1
  %.0.lcssa = phi i32 [ %2, %1 ], [ %5, %.lr.ph ]
  ret i32 %.0.lcssa
}